target datalayout = "e-m:e-p270:32:32-p271:32:32-p272:64:64-i64:64-i128:128-f80:128-n8:16:32:64-S128"
target triple = "x86_64-pc-linux-gnu"

%struct.s_p_hashtbl = type { %struct.re_pattern_buffer, [173 x ptr] }
%struct.re_pattern_buffer = type { ptr, i64, i64, i64, ptr, ptr, i64, i8 }
%struct.s_p_values = type { ptr, i32, i32, i32, ptr, ptr, ptr, ptr }

@.str.15 = private unnamed_addr constant [42 x i8] c"%s: Parsing error at unrecognized key: %s\00", align 1
@__func__._parse_next_key = private unnamed_addr constant [16 x i8] c"_parse_next_key\00", align 1

; Function Attrs: nounwind uwtable
define internal i32 @_conf_hashtbl_index(ptr noundef %0) #0 {
  %2 = alloca ptr, align 8
  %3 = alloca i32, align 4
  %4 = alloca i32, align 4
  %5 = alloca i32, align 4
  store ptr %0, ptr %2, align 8
  call void @llvm.lifetime.start.p0(i64 4, ptr %3) #9
  store i32 0, ptr %3, align 4
  br label %6

6:                                                ; preds = %25, %1
  %7 = load ptr, ptr %2, align 8
  %8 = load i8, ptr %7, align 1
  %9 = sext i8 %8 to i32
  %10 = icmp ne i32 %9, 0
  br i1 %10, label %11, label %28

11:                                               ; preds = %6
  call void @llvm.lifetime.start.p0(i64 4, ptr %4) #9
  %12 = call ptr @__ctype_tolower_loc() #10
  %13 = load ptr, ptr %12, align 8
  %14 = load ptr, ptr %2, align 8
  %15 = load i8, ptr %14, align 1
  %16 = sext i8 %15 to i32
  %17 = sext i32 %16 to i64
  %18 = getelementptr inbounds i32, ptr %13, i64 %17
  %19 = load i32, ptr %18, align 4
  store i32 %19, ptr %4, align 4
  %20 = load i32, ptr %4, align 4
  store i32 %20, ptr %5, align 4
  call void @llvm.lifetime.end.p0(i64 4, ptr %4) #9
  %21 = load i32, ptr %5, align 4
  %22 = load i32, ptr %3, align 4
  %23 = mul i32 31, %22
  %24 = add i32 %21, %23
  store i32 %24, ptr %3, align 4
  br label %25

25:                                               ; preds = %11
  %26 = load ptr, ptr %2, align 8
  %27 = getelementptr inbounds nuw i8, ptr %26, i32 1
  store ptr %27, ptr %2, align 8
  br label %6, !llvm.loop !56

28:                                               ; preds = %6
  %29 = load i32, ptr %3, align 4
  %30 = urem i32 %29, 173
  call void @llvm.lifetime.end.p0(i64 4, ptr %3) #9
  ret i32 %30
}

; Function Attrs: nounwind uwtable
define internal ptr @_conf_hashtbl_lookup(ptr noundef %0, ptr noundef %1) #0 {
  %3 = alloca ptr, align 8
  %4 = alloca ptr, align 8
  %5 = alloca ptr, align 8
  %6 = alloca i32, align 4
  %7 = alloca ptr, align 8
  %8 = alloca i32, align 4
  store ptr %0, ptr %4, align 8
  store ptr %1, ptr %5, align 8
  call void @llvm.lifetime.start.p0(i64 4, ptr %6) #9
  call void @llvm.lifetime.start.p0(i64 8, ptr %7) #9
  %9 = load ptr, ptr %4, align 8
  %10 = icmp ne ptr %9, null
  br i1 %10, label %12, label %11

11:                                               ; preds = %2
  store ptr null, ptr %3, align 8
  store i32 1, ptr %8, align 4
  br label %39

12:                                               ; preds = %2
  %13 = load ptr, ptr %5, align 8
  %14 = call i32 @_conf_hashtbl_index(ptr noundef %13)
  store i32 %14, ptr %6, align 4
  %15 = load ptr, ptr %4, align 8
  %16 = getelementptr inbounds nuw %struct.s_p_hashtbl, ptr %15, i32 0, i32 1
  %17 = load i32, ptr %6, align 4
  %18 = sext i32 %17 to i64
  %19 = getelementptr inbounds [173 x ptr], ptr %16, i64 0, i64 %18
  %20 = load ptr, ptr %19, align 8
  store ptr %20, ptr %7, align 8
  br label %21

21:                                               ; preds = %34, %12
  %22 = load ptr, ptr %7, align 8
  %23 = icmp ne ptr %22, null
  br i1 %23, label %24, label %38

24:                                               ; preds = %21
  %25 = load ptr, ptr %7, align 8
  %26 = getelementptr inbounds nuw %struct.s_p_values, ptr %25, i32 0, i32 0
  %27 = load ptr, ptr %26, align 8
  %28 = load ptr, ptr %5, align 8
  %29 = call i32 @xstrcasecmp(ptr noundef %27, ptr noundef %28)
  %30 = icmp eq i32 %29, 0
  br i1 %30, label %31, label %33

31:                                               ; preds = %24
  %32 = load ptr, ptr %7, align 8
  store ptr %32, ptr %3, align 8
  store i32 1, ptr %8, align 4
  br label %39

33:                                               ; preds = %24
  br label %34

34:                                               ; preds = %33
  %35 = load ptr, ptr %7, align 8
  %36 = getelementptr inbounds nuw %struct.s_p_values, ptr %35, i32 0, i32 7
  %37 = load ptr, ptr %36, align 8
  store ptr %37, ptr %7, align 8
  br label %21, !llvm.loop !27

38:                                               ; preds = %21
  store ptr null, ptr %3, align 8
  store i32 1, ptr %8, align 4
  br label %39

39:                                               ; preds = %38, %31, %11
  call void @llvm.lifetime.end.p0(i64 8, ptr %7) #9
  call void @llvm.lifetime.end.p0(i64 4, ptr %6) #9
  %40 = load ptr, ptr %3, align 8
  ret ptr %40
}

; Function Attrs: nounwind uwtable
define internal i32 @_parse_next_key(ptr noundef %0, ptr noundef %1, ptr noundef %2, i1 noundef zeroext %3) #0 {
  %5 = alloca i32, align 4
  %6 = alloca ptr, align 8
  %7 = alloca ptr, align 8
  %8 = alloca ptr, align 8
  %9 = alloca i8, align 1
  %10 = alloca ptr, align 8
  %11 = alloca ptr, align 8
  %12 = alloca ptr, align 8
  %13 = alloca ptr, align 8
  %14 = alloca i32, align 4
  %15 = alloca i32, align 4
  store ptr %0, ptr %6, align 8
  store ptr %1, ptr %7, align 8
  store ptr %2, ptr %8, align 8
  %16 = zext i1 %3 to i8
  store i8 %16, ptr %9, align 1
  call void @llvm.lifetime.start.p0(i64 8, ptr %10) #9
  call void @llvm.lifetime.start.p0(i64 8, ptr %11) #9
  call void @llvm.lifetime.start.p0(i64 8, ptr %12) #9
  call void @llvm.lifetime.start.p0(i64 8, ptr %13) #9
  call void @llvm.lifetime.start.p0(i64 4, ptr %14) #9
  %17 = load ptr, ptr %6, align 8
  %18 = load ptr, ptr %7, align 8
  %19 = call i32 @_keyvalue_regex(ptr noundef %17, ptr noundef %18, ptr noundef %10, ptr noundef %11, ptr noundef %13, ptr noundef %14)
  %20 = icmp eq i32 %19, 0
  br i1 %20, label %21, label %67

21:                                               ; preds = %4
  %22 = load ptr, ptr %6, align 8
  %23 = load ptr, ptr %10, align 8
  %24 = call ptr @_conf_hashtbl_lookup(ptr noundef %22, ptr noundef %23)
  store ptr %24, ptr %12, align 8
  %25 = icmp ne ptr %24, null
  br i1 %25, label %26, label %42

26:                                               ; preds = %21
  %27 = load i32, ptr %14, align 4
  %28 = load ptr, ptr %12, align 8
  %29 = getelementptr inbounds nuw %struct.s_p_values, ptr %28, i32 0, i32 2
  store i32 %27, ptr %29, align 4
  %30 = load ptr, ptr %12, align 8
  %31 = load ptr, ptr %11, align 8
  %32 = load ptr, ptr %13, align 8
  %33 = call i32 @_handle_keyvalue_match(ptr noundef %30, ptr noundef %31, ptr noundef %32, ptr noundef %13)
  %34 = icmp eq i32 %33, -1
  br i1 %34, label %35, label %39

35:                                               ; preds = %26
  call void @slurm_xfree(ptr noundef %10)
  call void @slurm_xfree(ptr noundef %11)
  %36 = load ptr, ptr %7, align 8
  %37 = load ptr, ptr %8, align 8
  store ptr %36, ptr %37, align 8
  %38 = call ptr @__errno_location() #10
  store i32 22, ptr %38, align 4
  store i32 0, ptr %5, align 4
  store i32 1, ptr %15, align 4
  br label %71

39:                                               ; preds = %26
  %40 = load ptr, ptr %13, align 8
  %41 = load ptr, ptr %8, align 8
  store ptr %40, ptr %41, align 8
  br label %66

42:                                               ; preds = %21
  %43 = load i8, ptr %9, align 1, !range !13, !noundef !14
  %44 = trunc i8 %43 to i1
  br i1 %44, label %45, label %59

45:                                               ; preds = %42
  br label %46

46:                                               ; preds = %45
  br label %47

47:                                               ; preds = %46
  %48 = call i32 @get_log_level()
  %49 = icmp sge i32 %48, 5
  br i1 %49, label %50, label %52

50:                                               ; preds = %47
  %51 = load ptr, ptr %10, align 8
  call void (i32, ptr, ...) @log_var(i32 noundef 5, ptr noundef @.str.15, ptr noundef @__func__._parse_next_key, ptr noundef %51)
  br label %52

52:                                               ; preds = %50, %47
  br label %53

53:                                               ; preds = %52
  br label %54

54:                                               ; preds = %53
  br label %55

55:                                               ; preds = %54
  br label %56

56:                                               ; preds = %55
  %57 = load ptr, ptr %7, align 8
  %58 = load ptr, ptr %8, align 8
  store ptr %57, ptr %58, align 8
  br label %65

59:                                               ; preds = %42
  %60 = load ptr, ptr %10, align 8
  %61 = call i32 (ptr, ...) @error(ptr noundef @.str.15, ptr noundef @__func__._parse_next_key, ptr noundef %60)
  call void @slurm_xfree(ptr noundef %10)
  call void @slurm_xfree(ptr noundef %11)
  %62 = load ptr, ptr %7, align 8
  %63 = load ptr, ptr %8, align 8
  store ptr %62, ptr %63, align 8
  %64 = call ptr @__errno_location() #10
  store i32 22, ptr %64, align 4
  store i32 0, ptr %5, align 4
  store i32 1, ptr %15, align 4
  br label %71

65:                                               ; preds = %56
  br label %66

66:                                               ; preds = %65, %39
  call void @slurm_xfree(ptr noundef %10)
  call void @slurm_xfree(ptr noundef %11)
  br label %70

67:                                               ; preds = %4
  %68 = load ptr, ptr %7, align 8
  %69 = load ptr, ptr %8, align 8
  store ptr %68, ptr %69, align 8
  br label %70

70:                                               ; preds = %67, %66
  store i32 1, ptr %5, align 4
  store i32 1, ptr %15, align 4
  br label %71

71:                                               ; preds = %70, %59, %35
  call void @llvm.lifetime.end.p0(i64 4, ptr %14) #9
  call void @llvm.lifetime.end.p0(i64 8, ptr %13) #9
  call void @llvm.lifetime.end.p0(i64 8, ptr %12) #9
  call void @llvm.lifetime.end.p0(i64 8, ptr %11) #9
  call void @llvm.lifetime.end.p0(i64 8, ptr %10) #9
  %72 = load i32, ptr %5, align 4
  ret i32 %72
}