; Function Attrs: nounwind uwtable
define internal fastcc range(i32 0, 2) i32 @_parse_next_key(ptr noundef %0, ptr noundef %1, ptr noundef nonnull writeonly captures(none) %2, i1 noundef zeroext %3) unnamed_addr #0 {
  %5 = alloca ptr, align 8
  %6 = alloca ptr, align 8
  %7 = alloca ptr, align 8
  %8 = alloca i32, align 4
  call void @llvm.lifetime.start.p0(i64 8, ptr nonnull %5) #13
  call void @llvm.lifetime.start.p0(i64 8, ptr nonnull %6) #13
  call void @llvm.lifetime.start.p0(i64 8, ptr nonnull %7) #13
  call void @llvm.lifetime.start.p0(i64 4, ptr nonnull %8) #13
  %9 = call fastcc i32 @_keyvalue_regex(ptr noundef %0, ptr noundef %1, ptr noundef %5, ptr noundef %6, ptr noundef %7, ptr noundef %8)
  %10 = icmp eq i32 %9, 0
  br i1 %10, label %11, label %53

11:                                               ; preds = %4
  %12 = load ptr, ptr %5, align 8
  %.not.i = icmp eq ptr %0, null
  br i1 %.not.i, label %.loopexit, label %13

13:                                               ; preds = %11
  %14 = load i8, ptr %12, align 1
  %.not8.i.i = icmp eq i8 %14, 0
  br i1 %.not8.i.i, label %_conf_hashtbl_index.exit.i, label %.lr.ph.i.i

.lr.ph.i.i:                                       ; preds = %13
  %15 = tail call ptr @__ctype_tolower_loc() #15
  %16 = load ptr, ptr %15, align 8
  br label %17

17:                                               ; preds = %17, %.lr.ph.i.i
  %18 = phi i8 [ %14, %.lr.ph.i.i ], [ %25, %17 ]
  %.010.i.i = phi ptr [ %12, %.lr.ph.i.i ], [ %24, %17 ]
  %.069.i.i = phi i32 [ 0, %.lr.ph.i.i ], [ %23, %17 ]
  %19 = sext i8 %18 to i64
  %20 = getelementptr inbounds i32, ptr %16, i64 %19
  %21 = load i32, ptr %20, align 4
  %22 = mul i32 %.069.i.i, 31
  %23 = add i32 %21, %22
  %24 = getelementptr inbounds nuw i8, ptr %.010.i.i, i64 1
  %25 = load i8, ptr %24, align 1
  %.not.i.i = icmp eq i8 %25, 0
  br i1 %.not.i.i, label %._crit_edge.loopexit.i.i, label %17, !llvm.loop !28

._crit_edge.loopexit.i.i:                         ; preds = %17
  %26 = urem i32 %23, 173
  %27 = zext nneg i32 %26 to i64
  br label %_conf_hashtbl_index.exit.i

_conf_hashtbl_index.exit.i:                       ; preds = %._crit_edge.loopexit.i.i, %13
  %.06.lcssa.i.i = phi i64 [ 0, %13 ], [ %27, %._crit_edge.loopexit.i.i ]
  %28 = getelementptr inbounds nuw i8, ptr %0, i64 64
  %29 = getelementptr inbounds nuw [173 x ptr], ptr %28, i64 0, i64 %.06.lcssa.i.i
  %.012.i = load ptr, ptr %29, align 8
  %.not1113.i = icmp eq ptr %.012.i, null
  br i1 %.not1113.i, label %.loopexit, label %.lr.ph.i

.lr.ph.i:                                         ; preds = %_conf_hashtbl_index.exit.i, %33
  %.014.i = phi ptr [ %.0.i, %33 ], [ %.012.i, %_conf_hashtbl_index.exit.i ]
  %30 = load ptr, ptr %.014.i, align 8
  %31 = tail call i32 @xstrcasecmp(ptr noundef %30, ptr noundef nonnull %12) #13
  %32 = icmp eq i32 %31, 0
  br i1 %32, label %_conf_hashtbl_lookup.exit, label %33

33:                                               ; preds = %.lr.ph.i
  %34 = getelementptr inbounds nuw i8, ptr %.014.i, i64 48
  %.0.i = load ptr, ptr %34, align 8
  %.not11.i = icmp eq ptr %.0.i, null
  br i1 %.not11.i, label %.loopexit, label %.lr.ph.i, !llvm.loop !29

_conf_hashtbl_lookup.exit:                        ; preds = %.lr.ph.i
  %35 = load i32, ptr %8, align 4
  %36 = getelementptr inbounds nuw i8, ptr %.014.i, i64 12
  store i32 %35, ptr %36, align 4
  %37 = load ptr, ptr %6, align 8
  %38 = load ptr, ptr %7, align 8
  %39 = call fastcc i32 @_handle_keyvalue_match(ptr noundef %.014.i, ptr noundef %37, ptr noundef %38, ptr noundef %7)
  %40 = icmp eq i32 %39, -1
  br i1 %40, label %41, label %43

41:                                               ; preds = %_conf_hashtbl_lookup.exit
  call void @slurm_xfree(ptr noundef nonnull %5) #13
  call void @slurm_xfree(ptr noundef nonnull %6) #13
  store ptr %1, ptr %2, align 8
  %42 = tail call ptr @__errno_location() #15
  store i32 22, ptr %42, align 4
  br label %54

43:                                               ; preds = %_conf_hashtbl_lookup.exit
  %44 = load ptr, ptr %7, align 8
  br label %52

.loopexit:                                        ; preds = %33, %11, %_conf_hashtbl_index.exit.i
  br i1 %3, label %45, label %49

45:                                               ; preds = %.loopexit
  %46 = tail call i32 @get_log_level() #13
  %47 = icmp sgt i32 %46, 4
  br i1 %47, label %48, label %52

48:                                               ; preds = %45
  tail call void (i32, ptr, ...) @log_var(i32 noundef 5, ptr noundef nonnull @.str.15, ptr noundef nonnull @__func__._parse_next_key, ptr noundef %12) #13
  br label %52

49:                                               ; preds = %.loopexit
  %50 = tail call i32 (ptr, ...) @error(ptr noundef nonnull @.str.15, ptr noundef nonnull @__func__._parse_next_key, ptr noundef %12) #13
  call void @slurm_xfree(ptr noundef nonnull %5) #13
  call void @slurm_xfree(ptr noundef nonnull %6) #13
  store ptr %1, ptr %2, align 8
  %51 = tail call ptr @__errno_location() #15
  store i32 22, ptr %51, align 4
  br label %54

52:                                               ; preds = %45, %48, %43
  %storemerge = phi ptr [ %44, %43 ], [ %1, %48 ], [ %1, %45 ]
  store ptr %storemerge, ptr %2, align 8
  call void @slurm_xfree(ptr noundef nonnull %5) #13
  call void @slurm_xfree(ptr noundef nonnull %6) #13
  br label %54

53:                                               ; preds = %4
  store ptr %1, ptr %2, align 8
  br label %54

54:                                               ; preds = %52, %53, %49, %41
  %.0 = phi i32 [ 0, %41 ], [ 0, %49 ], [ 1, %53 ], [ 1, %52 ]
  call void @llvm.lifetime.end.p0(i64 4, ptr nonnull %8) #13
  call void @llvm.lifetime.end.p0(i64 8, ptr nonnull %7) #13
  call void @llvm.lifetime.end.p0(i64 8, ptr nonnull %6) #13
  call void @llvm.lifetime.end.p0(i64 8, ptr nonnull %5) #13
  ret i32 %.0
}